target datalayout = "e-m:e-p270:32:32-p271:32:32-p272:64:64-i64:64-i128:128-f80:128-n8:16:32:64-S128"
target triple = "x86_64-pc-linux-gnu"

%"class.gmx::AbstractAnalysisArrayData" = type <{ %"class.gmx::AbstractAnalysisData", i32, %"class.gmx::AnalysisDataPointSetInfo", [4 x i8], %"class.std::vector", %"class.std::vector.25", float, i8, i8, [2 x i8] }>
%"class.gmx::AbstractAnalysisData" = type { ptr, %"class.std::unique_ptr" }
%"class.std::unique_ptr" = type { %"struct.std::__uniq_ptr_data" }
%"struct.std::__uniq_ptr_data" = type { %"class.std::__uniq_ptr_impl" }
%"class.std::__uniq_ptr_impl" = type { %"class.std::tuple" }
%"class.std::tuple" = type { %"struct.std::_Tuple_impl" }
%"struct.std::_Tuple_impl" = type { %"struct.std::_Head_base.24" }
%"struct.std::_Head_base.24" = type { ptr }
%"class.gmx::AnalysisDataPointSetInfo" = type { i32, i32, i32, i32 }
%"class.std::vector" = type { %"struct.std::_Vector_base" }
%"struct.std::_Vector_base" = type { %"struct.std::_Vector_base<gmx::AnalysisDataValue, std::allocator<gmx::AnalysisDataValue>>::_Vector_impl" }
%"struct.std::_Vector_base<gmx::AnalysisDataValue, std::allocator<gmx::AnalysisDataValue>>::_Vector_impl" = type { %"struct.std::_Vector_base<gmx::AnalysisDataValue, std::allocator<gmx::AnalysisDataValue>>::_Vector_impl_data" }
%"struct.std::_Vector_base<gmx::AnalysisDataValue, std::allocator<gmx::AnalysisDataValue>>::_Vector_impl_data" = type { ptr, ptr, ptr }
%"class.std::vector.25" = type { %"struct.std::_Vector_base.26" }
%"struct.std::_Vector_base.26" = type { %"struct.std::_Vector_base<float, std::allocator<float>>::_Vector_impl" }
%"struct.std::_Vector_base<float, std::allocator<float>>::_Vector_impl" = type { %"struct.std::_Vector_base<float, std::allocator<float>>::_Vector_impl_data" }
%"struct.std::_Vector_base<float, std::allocator<float>>::_Vector_impl_data" = type { ptr, ptr, ptr }
%"class.gmx::internal::BasicAverageHistogramModule" = type { %"class.gmx::AbstractAverageHistogram", %"class.gmx::AnalysisDataModuleSerial", %"class.std::vector.38" }
%"class.gmx::AbstractAverageHistogram" = type { %"class.gmx::AbstractAnalysisArrayData.base", [2 x i8], %"class.gmx::AnalysisHistogramSettings" }
%"class.gmx::AbstractAnalysisArrayData.base" = type <{ %"class.gmx::AbstractAnalysisData", i32, %"class.gmx::AnalysisDataPointSetInfo", [4 x i8], %"class.std::vector", %"class.std::vector.25", float, i8, i8 }>
%"class.gmx::AnalysisHistogramSettings" = type <{ float, float, float, float, i32, i8, [3 x i8] }>
%"class.gmx::AnalysisDataModuleSerial" = type { %"class.gmx::IAnalysisDataModule" }
%"class.gmx::IAnalysisDataModule" = type { ptr }
%"class.std::vector.38" = type { %"struct.std::_Vector_base.39" }
%"struct.std::_Vector_base.39" = type { %"struct.std::_Vector_base<gmx::AnalysisDataFrameAverager, std::allocator<gmx::AnalysisDataFrameAverager>>::_Vector_impl" }
%"struct.std::_Vector_base<gmx::AnalysisDataFrameAverager, std::allocator<gmx::AnalysisDataFrameAverager>>::_Vector_impl" = type { %"struct.std::_Vector_base<gmx::AnalysisDataFrameAverager, std::allocator<gmx::AnalysisDataFrameAverager>>::_Vector_impl_data" }
%"struct.std::_Vector_base<gmx::AnalysisDataFrameAverager, std::allocator<gmx::AnalysisDataFrameAverager>>::_Vector_impl_data" = type { ptr, ptr, ptr }
%"class.gmx::AnalysisDataValue" = type { float, float, %"class.gmx::FlagsTemplate" }
%"class.gmx::FlagsTemplate" = type { i64 }
%"class.gmx::AnalysisDataFrameAverager" = type <{ %"class.std::vector.45", i8, [7 x i8] }>
%"class.std::vector.45" = type { %"struct.std::_Vector_base.46" }
%"struct.std::_Vector_base.46" = type { %"struct.std::_Vector_base<gmx::AnalysisDataFrameAverager::AverageItem, std::allocator<gmx::AnalysisDataFrameAverager::AverageItem>>::_Vector_impl" }
%"struct.std::_Vector_base<gmx::AnalysisDataFrameAverager::AverageItem, std::allocator<gmx::AnalysisDataFrameAverager::AverageItem>>::_Vector_impl" = type { %"struct.std::_Vector_base<gmx::AnalysisDataFrameAverager::AverageItem, std::allocator<gmx::AnalysisDataFrameAverager::AverageItem>>::_Vector_impl_data" }
%"struct.std::_Vector_base<gmx::AnalysisDataFrameAverager::AverageItem, std::allocator<gmx::AnalysisDataFrameAverager::AverageItem>>::_Vector_impl_data" = type { ptr, ptr, ptr }
%"struct.gmx::AnalysisDataFrameAverager::AverageItem" = type <{ double, double, i32, [4 x i8] }>

; Function Attrs: mustprogress nounwind uwtable
define linkonce_odr void @_ZN3gmx13FlagsTemplateINS_17AnalysisDataValue4FlagEE5clearES2_(ptr noundef nonnull align 8 dereferenceable(8) %0, i64 noundef %1) #0 comdat align 2 {
  %3 = alloca ptr, align 8
  %4 = alloca i64, align 8
  store ptr %0, ptr %3, align 8
  store i64 %1, ptr %4, align 8
  %5 = load ptr, ptr %3, align 8
  %6 = load i64, ptr %4, align 8
  %7 = xor i64 %6, -1
  %8 = getelementptr inbounds %"class.gmx::FlagsTemplate", ptr %5, i32 0, i32 0
  %9 = load i64, ptr %8, align 8
  %10 = and i64 %9, %7
  store i64 %10, ptr %8, align 8
  ret void
}

; Function Attrs: mustprogress uwtable
define linkonce_odr void @_ZN3gmx13FlagsTemplateINS_17AnalysisDataValue4FlagEE3setES2_b(ptr noundef nonnull align 8 dereferenceable(8) %0, i64 noundef %1, i1 noundef zeroext %2) #2 comdat align 2 {
  %4 = alloca ptr, align 8
  %5 = alloca i64, align 8
  %6 = alloca i8, align 1
  store ptr %0, ptr %4, align 8
  store i64 %1, ptr %5, align 8
  %7 = zext i1 %2 to i8
  store i8 %7, ptr %6, align 1
  %8 = load ptr, ptr %4, align 8
  %9 = load i8, ptr %6, align 1
  %10 = trunc i8 %9 to i1
  br i1 %10, label %11, label %13

11:                                               ; preds = %3
  %12 = load i64, ptr %5, align 8
  call void @_ZN3gmx13FlagsTemplateINS_17AnalysisDataValue4FlagEE3setES2_(ptr noundef nonnull align 8 dereferenceable(8) %8, i64 noundef %12)
  br label %15

13:                                               ; preds = %3
  %14 = load i64, ptr %5, align 8
  call void @_ZN3gmx13FlagsTemplateINS_17AnalysisDataValue4FlagEE5clearES2_(ptr noundef nonnull align 8 dereferenceable(8) %8, i64 noundef %14)
  br label %15

15:                                               ; preds = %13, %11
  ret void
}

; Function Attrs: mustprogress nounwind uwtable
define linkonce_odr void @_ZN3gmx13FlagsTemplateINS_17AnalysisDataValue4FlagEE3setES2_(ptr noundef nonnull align 8 dereferenceable(8) %0, i64 noundef %1) #0 comdat align 2 {
  %3 = alloca ptr, align 8
  %4 = alloca i64, align 8
  store ptr %0, ptr %3, align 8
  store i64 %1, ptr %4, align 8
  %5 = load ptr, ptr %3, align 8
  %6 = load i64, ptr %4, align 8
  %7 = getelementptr inbounds %"class.gmx::FlagsTemplate", ptr %5, i32 0, i32 0
  %8 = load i64, ptr %7, align 8
  %9 = or i64 %8, %6
  store i64 %9, ptr %7, align 8
  ret void
}

; Function Attrs: mustprogress nounwind uwtable
define linkonce_odr noundef nonnull align 8 dereferenceable(20) ptr @_ZNKSt6vectorIN3gmx25AnalysisDataFrameAverager11AverageItemESaIS2_EEixEm(ptr noundef nonnull align 8 dereferenceable(24) %0, i64 noundef %1) #0 comdat align 2 {
  %3 = alloca ptr, align 8
  %4 = alloca i64, align 8
  store ptr %0, ptr %3, align 8
  store i64 %1, ptr %4, align 8
  %5 = load ptr, ptr %3, align 8
  %6 = getelementptr inbounds %"struct.std::_Vector_base.46", ptr %5, i32 0, i32 0
  %7 = getelementptr inbounds %"struct.std::_Vector_base<gmx::AnalysisDataFrameAverager::AverageItem, std::allocator<gmx::AnalysisDataFrameAverager::AverageItem>>::_Vector_impl_data", ptr %6, i32 0, i32 0
  %8 = load ptr, ptr %7, align 8
  %9 = load i64, ptr %4, align 8
  %10 = getelementptr inbounds %"struct.gmx::AnalysisDataFrameAverager::AverageItem", ptr %8, i64 %9
  ret ptr %10
}

; Function Attrs: mustprogress nounwind uwtable
define linkonce_odr noundef nonnull align 8 dereferenceable(16) ptr @_ZNSt6vectorIN3gmx17AnalysisDataValueESaIS1_EEixEm(ptr noundef nonnull align 8 dereferenceable(24) %0, i64 noundef %1) #0 comdat align 2 {
  %3 = alloca ptr, align 8
  %4 = alloca i64, align 8
  store ptr %0, ptr %3, align 8
  store i64 %1, ptr %4, align 8
  %5 = load ptr, ptr %3, align 8
  %6 = getelementptr inbounds %"struct.std::_Vector_base", ptr %5, i32 0, i32 0
  %7 = getelementptr inbounds %"struct.std::_Vector_base<gmx::AnalysisDataValue, std::allocator<gmx::AnalysisDataValue>>::_Vector_impl_data", ptr %6, i32 0, i32 0
  %8 = load ptr, ptr %7, align 8
  %9 = load i64, ptr %4, align 8
  %10 = getelementptr inbounds %"class.gmx::AnalysisDataValue", ptr %8, i64 %9
  ret ptr %10
}

; Function Attrs: mustprogress uwtable
define linkonce_odr void @_ZN3gmx17AnalysisDataValue8setValueEffb(ptr noundef nonnull align 8 dereferenceable(16) %0, float noundef %1, float noundef %2, i1 noundef zeroext %3) #2 comdat align 2 {
  %5 = alloca ptr, align 8
  %6 = alloca float, align 4
  %7 = alloca float, align 4
  %8 = alloca i8, align 1
  store ptr %0, ptr %5, align 8
  store float %1, ptr %6, align 4
  store float %2, ptr %7, align 4
  %9 = zext i1 %3 to i8
  store i8 %9, ptr %8, align 1
  %10 = load ptr, ptr %5, align 8
  %11 = load float, ptr %6, align 4
  %12 = getelementptr inbounds %"class.gmx::AnalysisDataValue", ptr %10, i32 0, i32 0
  store float %11, ptr %12, align 8
  %13 = load float, ptr %7, align 4
  %14 = getelementptr inbounds %"class.gmx::AnalysisDataValue", ptr %10, i32 0, i32 1
  store float %13, ptr %14, align 4
  %15 = getelementptr inbounds %"class.gmx::AnalysisDataValue", ptr %10, i32 0, i32 2
  call void @_ZN3gmx13FlagsTemplateINS_17AnalysisDataValue4FlagEE3setES2_(ptr noundef nonnull align 8 dereferenceable(8) %15, i64 noundef 1)
  %16 = getelementptr inbounds %"class.gmx::AnalysisDataValue", ptr %10, i32 0, i32 2
  call void @_ZN3gmx13FlagsTemplateINS_17AnalysisDataValue4FlagEE3setES2_(ptr noundef nonnull align 8 dereferenceable(8) %16, i64 noundef 2)
  %17 = getelementptr inbounds %"class.gmx::AnalysisDataValue", ptr %10, i32 0, i32 2
  %18 = load i8, ptr %8, align 1
  %19 = trunc i8 %18 to i1
  call void @_ZN3gmx13FlagsTemplateINS_17AnalysisDataValue4FlagEE3setES2_b(ptr noundef nonnull align 8 dereferenceable(8) %17, i64 noundef 4, i1 noundef zeroext %19)
  ret void
}

; Function Attrs: mustprogress nounwind uwtable
define linkonce_odr noundef float @_ZSt4sqrtf(float noundef %0) #0 comdat {
  %2 = alloca float, align 4
  store float %0, ptr %2, align 4
  %3 = load float, ptr %2, align 4
  %4 = call float @sqrtf(float noundef %3) #14
  ret float %4
}

; Function Attrs: mustprogress nounwind uwtable
define linkonce_odr noundef float @_ZNK3gmx25AnalysisDataFrameAverager8varianceEi(ptr noundef nonnull align 8 dereferenceable(25) %0, i32 noundef %1) #0 comdat align 2 {
  %3 = alloca ptr, align 8
  %4 = alloca i32, align 4
  %5 = alloca ptr, align 8
  store ptr %0, ptr %3, align 8
  store i32 %1, ptr %4, align 4
  %6 = load ptr, ptr %3, align 8
  %7 = getelementptr inbounds %"class.gmx::AnalysisDataFrameAverager", ptr %6, i32 0, i32 0
  %8 = load i32, ptr %4, align 4
  %9 = sext i32 %8 to i64
  %10 = call noundef nonnull align 8 dereferenceable(20) ptr @_ZNKSt6vectorIN3gmx25AnalysisDataFrameAverager11AverageItemESaIS2_EEixEm(ptr noundef nonnull align 8 dereferenceable(24) %7, i64 noundef %9) #14
  store ptr %10, ptr %5, align 8
  %11 = load ptr, ptr %5, align 8
  %12 = getelementptr inbounds %"struct.gmx::AnalysisDataFrameAverager::AverageItem", ptr %11, i32 0, i32 2
  %13 = load i32, ptr %12, align 8
  %14 = icmp sgt i32 %13, 1
  br i1 %14, label %15, label %25

15:                                               ; preds = %2
  %16 = load ptr, ptr %5, align 8
  %17 = getelementptr inbounds %"struct.gmx::AnalysisDataFrameAverager::AverageItem", ptr %16, i32 0, i32 1
  %18 = load double, ptr %17, align 8
  %19 = load ptr, ptr %5, align 8
  %20 = getelementptr inbounds %"struct.gmx::AnalysisDataFrameAverager::AverageItem", ptr %19, i32 0, i32 2
  %21 = load i32, ptr %20, align 8
  %22 = sub nsw i32 %21, 1
  %23 = sitofp i32 %22 to double
  %24 = fdiv double %18, %23
  br label %26

25:                                               ; preds = %2
  br label %26

26:                                               ; preds = %25, %15
  %27 = phi double [ %24, %15 ], [ 0.000000e+00, %25 ]
  %28 = fptrunc double %27 to float
  ret float %28
}

; Function Attrs: mustprogress nounwind uwtable
define linkonce_odr noundef float @_ZNK3gmx25AnalysisDataFrameAverager7averageEi(ptr noundef nonnull align 8 dereferenceable(25) %0, i32 noundef %1) #0 comdat align 2 {
  %3 = alloca ptr, align 8
  %4 = alloca i32, align 4
  store ptr %0, ptr %3, align 8
  store i32 %1, ptr %4, align 4
  %5 = load ptr, ptr %3, align 8
  %6 = getelementptr inbounds %"class.gmx::AnalysisDataFrameAverager", ptr %5, i32 0, i32 0
  %7 = load i32, ptr %4, align 4
  %8 = sext i32 %7 to i64
  %9 = call noundef nonnull align 8 dereferenceable(20) ptr @_ZNKSt6vectorIN3gmx25AnalysisDataFrameAverager11AverageItemESaIS2_EEixEm(ptr noundef nonnull align 8 dereferenceable(24) %6, i64 noundef %8) #14
  %10 = getelementptr inbounds %"struct.gmx::AnalysisDataFrameAverager::AverageItem", ptr %9, i32 0, i32 0
  %11 = load double, ptr %10, align 8
  %12 = fptrunc double %11 to float
  ret float %12
}

; Function Attrs: mustprogress uwtable
define linkonce_odr noundef nonnull align 8 dereferenceable(16) ptr @_ZN3gmx25AbstractAnalysisArrayData5valueEii(ptr noundef nonnull align 8 dereferenceable(94) %0, i32 noundef %1, i32 noundef %2) #2 comdat align 2 {
  %4 = alloca ptr, align 8
  %5 = alloca i32, align 4
  %6 = alloca i32, align 4
  store ptr %0, ptr %4, align 8
  store i32 %1, ptr %5, align 4
  store i32 %2, ptr %6, align 4
  %7 = load ptr, ptr %4, align 8
  %8 = getelementptr inbounds %"class.gmx::AbstractAnalysisArrayData", ptr %7, i32 0, i32 4
  %9 = load i32, ptr %5, align 4
  %10 = call noundef i32 @_ZNK3gmx20AbstractAnalysisData11columnCountEv(ptr noundef nonnull align 8 dereferenceable(16) %7)
  %11 = mul nsw i32 %9, %10
  %12 = load i32, ptr %6, align 4
  %13 = add nsw i32 %11, %12
  %14 = sext i32 %13 to i64
  %15 = call noundef nonnull align 8 dereferenceable(16) ptr @_ZNSt6vectorIN3gmx17AnalysisDataValueESaIS1_EEixEm(ptr noundef nonnull align 8 dereferenceable(24) %8, i64 noundef %14) #14
  ret ptr %15
}

; Function Attrs: mustprogress nounwind uwtable
define linkonce_odr noundef i32 @_ZNK3gmx25AbstractAnalysisArrayData8rowCountEv(ptr noundef nonnull align 8 dereferenceable(94) %0) #0 comdat align 2 {
  %2 = alloca ptr, align 8
  store ptr %0, ptr %2, align 8
  %3 = load ptr, ptr %2, align 8
  %4 = getelementptr inbounds %"class.gmx::AbstractAnalysisArrayData", ptr %3, i32 0, i32 1
  %5 = load i32, ptr %4, align 8
  ret i32 %5
}

; Function Attrs: mustprogress nounwind uwtable
define linkonce_odr noundef nonnull align 8 dereferenceable(25) ptr @_ZNSt6vectorIN3gmx25AnalysisDataFrameAveragerESaIS1_EEixEm(ptr noundef nonnull align 8 dereferenceable(24) %0, i64 noundef %1) #0 comdat align 2 {
  %3 = alloca ptr, align 8
  %4 = alloca i64, align 8
  store ptr %0, ptr %3, align 8
  store i64 %1, ptr %4, align 8
  %5 = load ptr, ptr %3, align 8
  %6 = getelementptr inbounds %"struct.std::_Vector_base.39", ptr %5, i32 0, i32 0
  %7 = getelementptr inbounds %"struct.std::_Vector_base<gmx::AnalysisDataFrameAverager, std::allocator<gmx::AnalysisDataFrameAverager>>::_Vector_impl_data", ptr %6, i32 0, i32 0
  %8 = load ptr, ptr %7, align 8
  %9 = load i64, ptr %4, align 8
  %10 = getelementptr inbounds %"class.gmx::AnalysisDataFrameAverager", ptr %8, i64 %9
  ret ptr %10
}

; Function Attrs: mustprogress uwtable
define void @_ZN3gmx8internal27BasicAverageHistogramModule12dataFinishedEv(ptr noundef nonnull align 8 dereferenceable(152) %0) unnamed_addr #2 align 2 {
  %2 = alloca ptr, align 8
  %3 = alloca i32, align 4
  %4 = alloca i32, align 4
  store ptr %0, ptr %2, align 8
  %5 = load ptr, ptr %2, align 8
  call void @_ZN3gmx25AbstractAnalysisArrayData14allocateValuesEv(ptr noundef nonnull align 8 dereferenceable(94) %5)
  store i32 0, ptr %3, align 4
  br label %6

6:                                                ; preds = %40, %1
  %7 = load i32, ptr %3, align 4
  %8 = call noundef i32 @_ZNK3gmx20AbstractAnalysisData11columnCountEv(ptr noundef nonnull align 8 dereferenceable(16) %5)
  %9 = icmp slt i32 %7, %8
  br i1 %9, label %10, label %43

10:                                               ; preds = %6
  %11 = getelementptr inbounds %"class.gmx::internal::BasicAverageHistogramModule", ptr %5, i32 0, i32 2
  %12 = load i32, ptr %3, align 4
  %13 = sext i32 %12 to i64
  %14 = call noundef nonnull align 8 dereferenceable(25) ptr @_ZNSt6vectorIN3gmx25AnalysisDataFrameAveragerESaIS1_EEixEm(ptr noundef nonnull align 8 dereferenceable(24) %11, i64 noundef %13) #14
  call void @_ZN3gmx25AnalysisDataFrameAverager6finishEv(ptr noundef nonnull align 8 dereferenceable(25) %14)
  store i32 0, ptr %4, align 4
  br label %15

15:                                               ; preds = %36, %10
  %16 = load i32, ptr %4, align 4
  %17 = call noundef i32 @_ZNK3gmx25AbstractAnalysisArrayData8rowCountEv(ptr noundef nonnull align 8 dereferenceable(94) %5)
  %18 = icmp slt i32 %16, %17
  br i1 %18, label %19, label %39

19:                                               ; preds = %15
  %20 = load i32, ptr %4, align 4
  %21 = load i32, ptr %3, align 4
  %22 = call noundef nonnull align 8 dereferenceable(16) ptr @_ZN3gmx25AbstractAnalysisArrayData5valueEii(ptr noundef nonnull align 8 dereferenceable(94) %5, i32 noundef %20, i32 noundef %21)
  %23 = getelementptr inbounds %"class.gmx::internal::BasicAverageHistogramModule", ptr %5, i32 0, i32 2
  %24 = load i32, ptr %3, align 4
  %25 = sext i32 %24 to i64
  %26 = call noundef nonnull align 8 dereferenceable(25) ptr @_ZNSt6vectorIN3gmx25AnalysisDataFrameAveragerESaIS1_EEixEm(ptr noundef nonnull align 8 dereferenceable(24) %23, i64 noundef %25) #14
  %27 = load i32, ptr %4, align 4
  %28 = call noundef float @_ZNK3gmx25AnalysisDataFrameAverager7averageEi(ptr noundef nonnull align 8 dereferenceable(25) %26, i32 noundef %27)
  %29 = getelementptr inbounds %"class.gmx::internal::BasicAverageHistogramModule", ptr %5, i32 0, i32 2
  %30 = load i32, ptr %3, align 4
  %31 = sext i32 %30 to i64
  %32 = call noundef nonnull align 8 dereferenceable(25) ptr @_ZNSt6vectorIN3gmx25AnalysisDataFrameAveragerESaIS1_EEixEm(ptr noundef nonnull align 8 dereferenceable(24) %29, i64 noundef %31) #14
  %33 = load i32, ptr %4, align 4
  %34 = call noundef float @_ZNK3gmx25AnalysisDataFrameAverager8varianceEi(ptr noundef nonnull align 8 dereferenceable(25) %32, i32 noundef %33)
  %35 = call noundef float @_ZSt4sqrtf(float noundef %34)
  call void @_ZN3gmx17AnalysisDataValue8setValueEffb(ptr noundef nonnull align 8 dereferenceable(16) %22, float noundef %28, float noundef %35, i1 noundef zeroext true)
  br label %36

36:                                               ; preds = %19
  %37 = load i32, ptr %4, align 4
  %38 = add nsw i32 %37, 1
  store i32 %38, ptr %4, align 4
  br label %15, !llvm.loop !7

39:                                               ; preds = %15
  br label %40

40:                                               ; preds = %39
  %41 = load i32, ptr %3, align 4
  %42 = add nsw i32 %41, 1
  store i32 %42, ptr %3, align 4
  br label %6, !llvm.loop !8

43:                                               ; preds = %6
  ret void
}