; Function Attrs: mustprogress uwtable
define void @_ZN3gmx8internal27BasicAverageHistogramModule12dataFinishedEv(ptr noundef nonnull align 8 dereferenceable(152) %0) unnamed_addr #3 align 2 {
  tail call void @_ZN3gmx25AbstractAnalysisArrayData14allocateValuesEv(ptr noundef nonnull align 8 dereferenceable(94) %0)
  %2 = tail call noundef i32 @_ZNK3gmx20AbstractAnalysisData11columnCountEv(ptr noundef nonnull align 8 dereferenceable(16) %0)
  %3 = icmp sgt i32 %2, 0
  br i1 %3, label %.lr.ph15, label %._crit_edge16

.lr.ph15:                                         ; preds = %1
  %4 = getelementptr inbounds i8, ptr %0, i64 128
  %5 = getelementptr inbounds i8, ptr %0, i64 16
  %6 = getelementptr inbounds i8, ptr %0, i64 40
  br label %7

7:                                                ; preds = %.lr.ph15, %._crit_edge
  %indvars.iv18 = phi i64 [ 0, %.lr.ph15 ], [ %indvars.iv.next19, %._crit_edge ]
  %8 = load ptr, ptr %4, align 8
  %9 = getelementptr inbounds %"class.gmx::AnalysisDataFrameAverager", ptr %8, i64 %indvars.iv18
  tail call void @_ZN3gmx25AnalysisDataFrameAverager6finishEv(ptr noundef nonnull align 8 dereferenceable(25) %9)
  %10 = load i32, ptr %5, align 8
  %11 = icmp sgt i32 %10, 0
  br i1 %11, label %.lr.ph.preheader, label %._crit_edge

.lr.ph.preheader:                                 ; preds = %7
  %12 = trunc nuw nsw i64 %indvars.iv18 to i32
  br label %.lr.ph

.lr.ph:                                           ; preds = %.lr.ph.preheader, %_ZNK3gmx25AnalysisDataFrameAverager8varianceEi.exit
  %indvars.iv = phi i64 [ 0, %.lr.ph.preheader ], [ %indvars.iv.next, %_ZNK3gmx25AnalysisDataFrameAverager8varianceEi.exit ]
  %13 = tail call noundef i32 @_ZNK3gmx20AbstractAnalysisData11columnCountEv(ptr noundef nonnull align 8 dereferenceable(16) %0)
  %14 = trunc nuw nsw i64 %indvars.iv to i32
  %15 = mul nsw i32 %13, %14
  %16 = add nsw i32 %15, %12
  %17 = sext i32 %16 to i64
  %18 = load ptr, ptr %6, align 8
  %19 = getelementptr inbounds %"class.gmx::AnalysisDataValue", ptr %18, i64 %17
  %20 = load ptr, ptr %4, align 8
  %21 = getelementptr inbounds %"class.gmx::AnalysisDataFrameAverager", ptr %20, i64 %indvars.iv18
  %22 = load ptr, ptr %21, align 8
  %23 = getelementptr inbounds %"struct.gmx::AnalysisDataFrameAverager::AverageItem", ptr %22, i64 %indvars.iv
  %24 = load double, ptr %23, align 8
  %25 = fptrunc double %24 to float
  %26 = getelementptr inbounds i8, ptr %23, i64 16
  %27 = load i32, ptr %26, align 8
  %28 = icmp sgt i32 %27, 1
  br i1 %28, label %29, label %_ZNK3gmx25AnalysisDataFrameAverager8varianceEi.exit

29:                                               ; preds = %.lr.ph
  %30 = getelementptr inbounds i8, ptr %23, i64 8
  %31 = load double, ptr %30, align 8
  %32 = add nsw i32 %27, -1
  %33 = sitofp i32 %32 to double
  %34 = fdiv double %31, %33
  %35 = fptrunc double %34 to float
  br label %_ZNK3gmx25AnalysisDataFrameAverager8varianceEi.exit

_ZNK3gmx25AnalysisDataFrameAverager8varianceEi.exit: ; preds = %.lr.ph, %29
  %36 = phi float [ %35, %29 ], [ 0.000000e+00, %.lr.ph ]
  %37 = tail call noundef float @sqrtf(float noundef %36) #26
  store float %25, ptr %19, align 8
  %38 = getelementptr inbounds i8, ptr %19, i64 4
  store float %37, ptr %38, align 4
  %39 = getelementptr inbounds i8, ptr %19, i64 8
  %40 = load i64, ptr %39, align 8
  %41 = or i64 %40, 7
  store i64 %41, ptr %39, align 8
  %indvars.iv.next = add nuw nsw i64 %indvars.iv, 1
  %42 = load i32, ptr %5, align 8
  %43 = sext i32 %42 to i64
  %44 = icmp slt i64 %indvars.iv.next, %43
  br i1 %44, label %.lr.ph, label %._crit_edge, !llvm.loop !8

._crit_edge:                                      ; preds = %_ZNK3gmx25AnalysisDataFrameAverager8varianceEi.exit, %7
  %indvars.iv.next19 = add nuw nsw i64 %indvars.iv18, 1
  %45 = tail call noundef i32 @_ZNK3gmx20AbstractAnalysisData11columnCountEv(ptr noundef nonnull align 8 dereferenceable(16) %0)
  %46 = sext i32 %45 to i64
  %47 = icmp slt i64 %indvars.iv.next19, %46
  br i1 %47, label %7, label %._crit_edge16, !llvm.loop !9

._crit_edge16:                                    ; preds = %._crit_edge, %1
  ret void
}